target datalayout = "e-m:e-p270:32:32-p271:32:32-p272:64:64-i64:64-i128:128-f80:128-n8:16:32:64-S128"
target triple = "x86_64-pc-linux-gnu"

%struct.bz_stream = type { ptr, i32, i32, i32, ptr, i32, i32, i32, ptr, ptr, ptr, ptr }
%struct.bzFile = type { ptr, [5000 x i8], i32, i8, %struct.bz_stream, i32, i8 }

; Function Attrs: nounwind uwtable
define internal zeroext i8 @myfeof(ptr noundef %0) #0 {
  %2 = alloca i8, align 1
  %3 = alloca ptr, align 8
  %4 = alloca i32, align 4
  store ptr %0, ptr %3, align 8
  %5 = load ptr, ptr %3, align 8
  %6 = call i32 @fgetc(ptr noundef %5)
  store i32 %6, ptr %4, align 4
  %7 = load i32, ptr %4, align 4
  %8 = icmp eq i32 %7, -1
  br i1 %8, label %9, label %10

9:                                                ; preds = %1
  store i8 1, ptr %2, align 1
  br label %14

10:                                               ; preds = %1
  %11 = load i32, ptr %4, align 4
  %12 = load ptr, ptr %3, align 8
  %13 = call i32 @ungetc(i32 noundef %11, ptr noundef %12)
  store i8 0, ptr %2, align 1
  br label %14

14:                                               ; preds = %10, %9
  %15 = load i8, ptr %2, align 1
  ret i8 %15
}

; Function Attrs: nounwind uwtable
define i32 @BZ2_bzRead(ptr noundef %0, ptr noundef %1, ptr noundef %2, i32 noundef %3) #0 {
  %5 = alloca i32, align 4
  %6 = alloca ptr, align 8
  %7 = alloca ptr, align 8
  %8 = alloca ptr, align 8
  %9 = alloca i32, align 4
  %10 = alloca i32, align 4
  %11 = alloca i32, align 4
  %12 = alloca ptr, align 8
  store ptr %0, ptr %6, align 8
  store ptr %1, ptr %7, align 8
  store ptr %2, ptr %8, align 8
  store i32 %3, ptr %9, align 4
  %13 = load ptr, ptr %7, align 8
  store ptr %13, ptr %12, align 8
  %14 = load ptr, ptr %6, align 8
  %15 = icmp ne ptr %14, null
  br i1 %15, label %16, label %18

16:                                               ; preds = %4
  %17 = load ptr, ptr %6, align 8
  store i32 0, ptr %17, align 4
  br label %18

18:                                               ; preds = %16, %4
  %19 = load ptr, ptr %12, align 8
  %20 = icmp ne ptr %19, null
  br i1 %20, label %21, label %24

21:                                               ; preds = %18
  %22 = load ptr, ptr %12, align 8
  %23 = getelementptr inbounds %struct.bzFile, ptr %22, i32 0, i32 5
  store i32 0, ptr %23, align 8
  br label %24

24:                                               ; preds = %21, %18
  %25 = load ptr, ptr %12, align 8
  %26 = icmp eq ptr %25, null
  br i1 %26, label %33, label %27

27:                                               ; preds = %24
  %28 = load ptr, ptr %8, align 8
  %29 = icmp eq ptr %28, null
  br i1 %29, label %33, label %30

30:                                               ; preds = %27
  %31 = load i32, ptr %9, align 4
  %32 = icmp slt i32 %31, 0
  br i1 %32, label %33, label %45

33:                                               ; preds = %30, %27, %24
  %34 = load ptr, ptr %6, align 8
  %35 = icmp ne ptr %34, null
  br i1 %35, label %36, label %38

36:                                               ; preds = %33
  %37 = load ptr, ptr %6, align 8
  store i32 -2, ptr %37, align 4
  br label %38

38:                                               ; preds = %36, %33
  %39 = load ptr, ptr %12, align 8
  %40 = icmp ne ptr %39, null
  br i1 %40, label %41, label %44

41:                                               ; preds = %38
  %42 = load ptr, ptr %12, align 8
  %43 = getelementptr inbounds %struct.bzFile, ptr %42, i32 0, i32 5
  store i32 -2, ptr %43, align 8
  br label %44

44:                                               ; preds = %41, %38
  store i32 0, ptr %5, align 4
  br label %256

45:                                               ; preds = %30
  %46 = load ptr, ptr %12, align 8
  %47 = getelementptr inbounds %struct.bzFile, ptr %46, i32 0, i32 3
  %48 = load i8, ptr %47, align 4
  %49 = icmp ne i8 %48, 0
  br i1 %49, label %50, label %62

50:                                               ; preds = %45
  %51 = load ptr, ptr %6, align 8
  %52 = icmp ne ptr %51, null
  br i1 %52, label %53, label %55

53:                                               ; preds = %50
  %54 = load ptr, ptr %6, align 8
  store i32 -1, ptr %54, align 4
  br label %55

55:                                               ; preds = %53, %50
  %56 = load ptr, ptr %12, align 8
  %57 = icmp ne ptr %56, null
  br i1 %57, label %58, label %61

58:                                               ; preds = %55
  %59 = load ptr, ptr %12, align 8
  %60 = getelementptr inbounds %struct.bzFile, ptr %59, i32 0, i32 5
  store i32 -1, ptr %60, align 8
  br label %61

61:                                               ; preds = %58, %55
  store i32 0, ptr %5, align 4
  br label %256

62:                                               ; preds = %45
  %63 = load i32, ptr %9, align 4
  %64 = icmp eq i32 %63, 0
  br i1 %64, label %65, label %77

65:                                               ; preds = %62
  %66 = load ptr, ptr %6, align 8
  %67 = icmp ne ptr %66, null
  br i1 %67, label %68, label %70

68:                                               ; preds = %65
  %69 = load ptr, ptr %6, align 8
  store i32 0, ptr %69, align 4
  br label %70

70:                                               ; preds = %68, %65
  %71 = load ptr, ptr %12, align 8
  %72 = icmp ne ptr %71, null
  br i1 %72, label %73, label %76

73:                                               ; preds = %70
  %74 = load ptr, ptr %12, align 8
  %75 = getelementptr inbounds %struct.bzFile, ptr %74, i32 0, i32 5
  store i32 0, ptr %75, align 8
  br label %76

76:                                               ; preds = %73, %70
  store i32 0, ptr %5, align 4
  br label %256

77:                                               ; preds = %62
  %78 = load i32, ptr %9, align 4
  %79 = load ptr, ptr %12, align 8
  %80 = getelementptr inbounds %struct.bzFile, ptr %79, i32 0, i32 4
  %81 = getelementptr inbounds %struct.bz_stream, ptr %80, i32 0, i32 5
  store i32 %78, ptr %81, align 8
  %82 = load ptr, ptr %8, align 8
  %83 = load ptr, ptr %12, align 8
  %84 = getelementptr inbounds %struct.bzFile, ptr %83, i32 0, i32 4
  %85 = getelementptr inbounds %struct.bz_stream, ptr %84, i32 0, i32 4
  store ptr %82, ptr %85, align 8
  br label %86

86:                                               ; preds = %255, %77
  %87 = load ptr, ptr %12, align 8
  %88 = getelementptr inbounds %struct.bzFile, ptr %87, i32 0, i32 0
  %89 = load ptr, ptr %88, align 8
  %90 = call i32 @ferror(ptr noundef %89) #8
  %91 = icmp ne i32 %90, 0
  br i1 %91, label %92, label %104

92:                                               ; preds = %86
  %93 = load ptr, ptr %6, align 8
  %94 = icmp ne ptr %93, null
  br i1 %94, label %95, label %97

95:                                               ; preds = %92
  %96 = load ptr, ptr %6, align 8
  store i32 -6, ptr %96, align 4
  br label %97

97:                                               ; preds = %95, %92
  %98 = load ptr, ptr %12, align 8
  %99 = icmp ne ptr %98, null
  br i1 %99, label %100, label %103

100:                                              ; preds = %97
  %101 = load ptr, ptr %12, align 8
  %102 = getelementptr inbounds %struct.bzFile, ptr %101, i32 0, i32 5
  store i32 -6, ptr %102, align 8
  br label %103

103:                                              ; preds = %100, %97
  store i32 0, ptr %5, align 4
  br label %256

104:                                              ; preds = %86
  %105 = load ptr, ptr %12, align 8
  %106 = getelementptr inbounds %struct.bzFile, ptr %105, i32 0, i32 4
  %107 = getelementptr inbounds %struct.bz_stream, ptr %106, i32 0, i32 1
  %108 = load i32, ptr %107, align 8
  %109 = icmp eq i32 %108, 0
  br i1 %109, label %110, label %158

110:                                              ; preds = %104
  %111 = load ptr, ptr %12, align 8
  %112 = getelementptr inbounds %struct.bzFile, ptr %111, i32 0, i32 0
  %113 = load ptr, ptr %112, align 8
  %114 = call zeroext i8 @myfeof(ptr noundef %113)
  %115 = icmp ne i8 %114, 0
  br i1 %115, label %158, label %116

116:                                              ; preds = %110
  %117 = load ptr, ptr %12, align 8
  %118 = getelementptr inbounds %struct.bzFile, ptr %117, i32 0, i32 1
  %119 = getelementptr inbounds [5000 x i8], ptr %118, i64 0, i64 0
  %120 = load ptr, ptr %12, align 8
  %121 = getelementptr inbounds %struct.bzFile, ptr %120, i32 0, i32 0
  %122 = load ptr, ptr %121, align 8
  %123 = call i64 @fread(ptr noundef %119, i64 noundef 1, i64 noundef 5000, ptr noundef %122)
  %124 = trunc i64 %123 to i32
  store i32 %124, ptr %10, align 4
  %125 = load ptr, ptr %12, align 8
  %126 = getelementptr inbounds %struct.bzFile, ptr %125, i32 0, i32 0
  %127 = load ptr, ptr %126, align 8
  %128 = call i32 @ferror(ptr noundef %127) #8
  %129 = icmp ne i32 %128, 0
  br i1 %129, label %130, label %142

130:                                              ; preds = %116
  %131 = load ptr, ptr %6, align 8
  %132 = icmp ne ptr %131, null
  br i1 %132, label %133, label %135

133:                                              ; preds = %130
  %134 = load ptr, ptr %6, align 8
  store i32 -6, ptr %134, align 4
  br label %135

135:                                              ; preds = %133, %130
  %136 = load ptr, ptr %12, align 8
  %137 = icmp ne ptr %136, null
  br i1 %137, label %138, label %141

138:                                              ; preds = %135
  %139 = load ptr, ptr %12, align 8
  %140 = getelementptr inbounds %struct.bzFile, ptr %139, i32 0, i32 5
  store i32 -6, ptr %140, align 8
  br label %141

141:                                              ; preds = %138, %135
  store i32 0, ptr %5, align 4
  br label %256

142:                                              ; preds = %116
  %143 = load i32, ptr %10, align 4
  %144 = load ptr, ptr %12, align 8
  %145 = getelementptr inbounds %struct.bzFile, ptr %144, i32 0, i32 2
  store i32 %143, ptr %145, align 8
  %146 = load ptr, ptr %12, align 8
  %147 = getelementptr inbounds %struct.bzFile, ptr %146, i32 0, i32 2
  %148 = load i32, ptr %147, align 8
  %149 = load ptr, ptr %12, align 8
  %150 = getelementptr inbounds %struct.bzFile, ptr %149, i32 0, i32 4
  %151 = getelementptr inbounds %struct.bz_stream, ptr %150, i32 0, i32 1
  store i32 %148, ptr %151, align 8
  %152 = load ptr, ptr %12, align 8
  %153 = getelementptr inbounds %struct.bzFile, ptr %152, i32 0, i32 1
  %154 = getelementptr inbounds [5000 x i8], ptr %153, i64 0, i64 0
  %155 = load ptr, ptr %12, align 8
  %156 = getelementptr inbounds %struct.bzFile, ptr %155, i32 0, i32 4
  %157 = getelementptr inbounds %struct.bz_stream, ptr %156, i32 0, i32 0
  store ptr %154, ptr %157, align 8
  br label %158

158:                                              ; preds = %142, %110, %104
  %159 = load ptr, ptr %12, align 8
  %160 = getelementptr inbounds %struct.bzFile, ptr %159, i32 0, i32 4
  %161 = call i32 @BZ2_bzDecompress(ptr noundef %160)
  store i32 %161, ptr %11, align 4
  %162 = load i32, ptr %11, align 4
  %163 = icmp ne i32 %162, 0
  br i1 %163, label %164, label %181

164:                                              ; preds = %158
  %165 = load i32, ptr %11, align 4
  %166 = icmp ne i32 %165, 4
  br i1 %166, label %167, label %181

167:                                              ; preds = %164
  %168 = load ptr, ptr %6, align 8
  %169 = icmp ne ptr %168, null
  br i1 %169, label %170, label %173

170:                                              ; preds = %167
  %171 = load i32, ptr %11, align 4
  %172 = load ptr, ptr %6, align 8
  store i32 %171, ptr %172, align 4
  br label %173

173:                                              ; preds = %170, %167
  %174 = load ptr, ptr %12, align 8
  %175 = icmp ne ptr %174, null
  br i1 %175, label %176, label %180

176:                                              ; preds = %173
  %177 = load i32, ptr %11, align 4
  %178 = load ptr, ptr %12, align 8
  %179 = getelementptr inbounds %struct.bzFile, ptr %178, i32 0, i32 5
  store i32 %177, ptr %179, align 8
  br label %180

180:                                              ; preds = %176, %173
  store i32 0, ptr %5, align 4
  br label %256

181:                                              ; preds = %164, %158
  %182 = load i32, ptr %11, align 4
  %183 = icmp eq i32 %182, 0
  br i1 %183, label %184, label %215

184:                                              ; preds = %181
  %185 = load ptr, ptr %12, align 8
  %186 = getelementptr inbounds %struct.bzFile, ptr %185, i32 0, i32 0
  %187 = load ptr, ptr %186, align 8
  %188 = call zeroext i8 @myfeof(ptr noundef %187)
  %189 = zext i8 %188 to i32
  %190 = icmp ne i32 %189, 0
  br i1 %190, label %191, label %215

191:                                              ; preds = %184
  %192 = load ptr, ptr %12, align 8
  %193 = getelementptr inbounds %struct.bzFile, ptr %192, i32 0, i32 4
  %194 = getelementptr inbounds %struct.bz_stream, ptr %193, i32 0, i32 1
  %195 = load i32, ptr %194, align 8
  %196 = icmp eq i32 %195, 0
  br i1 %196, label %197, label %215

197:                                              ; preds = %191
  %198 = load ptr, ptr %12, align 8
  %199 = getelementptr inbounds %struct.bzFile, ptr %198, i32 0, i32 4
  %200 = getelementptr inbounds %struct.bz_stream, ptr %199, i32 0, i32 5
  %201 = load i32, ptr %200, align 8
  %202 = icmp ugt i32 %201, 0
  br i1 %202, label %203, label %215

203:                                              ; preds = %197
  %204 = load ptr, ptr %6, align 8
  %205 = icmp ne ptr %204, null
  br i1 %205, label %206, label %208

206:                                              ; preds = %203
  %207 = load ptr, ptr %6, align 8
  store i32 -7, ptr %207, align 4
  br label %208

208:                                              ; preds = %206, %203
  %209 = load ptr, ptr %12, align 8
  %210 = icmp ne ptr %209, null
  br i1 %210, label %211, label %214

211:                                              ; preds = %208
  %212 = load ptr, ptr %12, align 8
  %213 = getelementptr inbounds %struct.bzFile, ptr %212, i32 0, i32 5
  store i32 -7, ptr %213, align 8
  br label %214

214:                                              ; preds = %211, %208
  store i32 0, ptr %5, align 4
  br label %256

215:                                              ; preds = %197, %191, %184, %181
  %216 = load i32, ptr %11, align 4
  %217 = icmp eq i32 %216, 4
  br i1 %217, label %218, label %236

218:                                              ; preds = %215
  %219 = load ptr, ptr %6, align 8
  %220 = icmp ne ptr %219, null
  br i1 %220, label %221, label %223

221:                                              ; preds = %218
  %222 = load ptr, ptr %6, align 8
  store i32 4, ptr %222, align 4
  br label %223

223:                                              ; preds = %221, %218
  %224 = load ptr, ptr %12, align 8
  %225 = icmp ne ptr %224, null
  br i1 %225, label %226, label %229

226:                                              ; preds = %223
  %227 = load ptr, ptr %12, align 8
  %228 = getelementptr inbounds %struct.bzFile, ptr %227, i32 0, i32 5
  store i32 4, ptr %228, align 8
  br label %229

229:                                              ; preds = %226, %223
  %230 = load i32, ptr %9, align 4
  %231 = load ptr, ptr %12, align 8
  %232 = getelementptr inbounds %struct.bzFile, ptr %231, i32 0, i32 4
  %233 = getelementptr inbounds %struct.bz_stream, ptr %232, i32 0, i32 5
  %234 = load i32, ptr %233, align 8
  %235 = sub i32 %230, %234
  store i32 %235, ptr %5, align 4
  br label %256

236:                                              ; preds = %215
  %237 = load ptr, ptr %12, align 8
  %238 = getelementptr inbounds %struct.bzFile, ptr %237, i32 0, i32 4
  %239 = getelementptr inbounds %struct.bz_stream, ptr %238, i32 0, i32 5
  %240 = load i32, ptr %239, align 8
  %241 = icmp eq i32 %240, 0
  br i1 %241, label %242, label %255

242:                                              ; preds = %236
  %243 = load ptr, ptr %6, align 8
  %244 = icmp ne ptr %243, null
  br i1 %244, label %245, label %247

245:                                              ; preds = %242
  %246 = load ptr, ptr %6, align 8
  store i32 0, ptr %246, align 4
  br label %247

247:                                              ; preds = %245, %242
  %248 = load ptr, ptr %12, align 8
  %249 = icmp ne ptr %248, null
  br i1 %249, label %250, label %253

250:                                              ; preds = %247
  %251 = load ptr, ptr %12, align 8
  %252 = getelementptr inbounds %struct.bzFile, ptr %251, i32 0, i32 5
  store i32 0, ptr %252, align 8
  br label %253

253:                                              ; preds = %250, %247
  %254 = load i32, ptr %9, align 4
  store i32 %254, ptr %5, align 4
  br label %256

255:                                              ; preds = %236
  br label %86

256:                                              ; preds = %253, %229, %214, %180, %141, %103, %76, %61, %44
  %257 = load i32, ptr %5, align 4
  ret i32 %257
}