; Function Attrs: nounwind uwtable
define i32 @BZ2_bzRead(ptr noundef writeonly %0, ptr noundef %1, ptr noundef %2, i32 noundef %3) local_unnamed_addr #4 {
  %.not = icmp eq ptr %0, null
  br i1 %.not, label %6, label %5

5:                                                ; preds = %4
  store i32 0, ptr %0, align 4
  br label %6

6:                                                ; preds = %5, %4
  %.not88 = icmp eq ptr %1, null
  br i1 %.not88, label %.thread, label %7

7:                                                ; preds = %6
  %8 = getelementptr inbounds nuw i8, ptr %1, i64 5096
  store i32 0, ptr %8, align 8
  %9 = icmp eq ptr %2, null
  %10 = icmp slt i32 %3, 0
  %or.cond3 = or i1 %9, %10
  br i1 %or.cond3, label %.thread, label %15

.thread:                                          ; preds = %6, %7
  br i1 %.not, label %12, label %11

11:                                               ; preds = %.thread
  store i32 -2, ptr %0, align 4
  br label %12

12:                                               ; preds = %11, %.thread
  br i1 %.not88, label %83, label %13

13:                                               ; preds = %12
  %14 = getelementptr inbounds nuw i8, ptr %1, i64 5096
  store i32 -2, ptr %14, align 8
  br label %83

15:                                               ; preds = %7
  %16 = getelementptr inbounds nuw i8, ptr %1, i64 5012
  %17 = load i8, ptr %16, align 4
  %.not89 = icmp eq i8 %17, 0
  br i1 %.not89, label %21, label %18

18:                                               ; preds = %15
  br i1 %.not, label %20, label %19

19:                                               ; preds = %18
  store i32 -1, ptr %0, align 4
  br label %20

20:                                               ; preds = %18, %19
  store i32 -1, ptr %8, align 8
  br label %83

21:                                               ; preds = %15
  %22 = icmp eq i32 %3, 0
  br i1 %22, label %23, label %26

23:                                               ; preds = %21
  br i1 %.not, label %25, label %24

24:                                               ; preds = %23
  store i32 0, ptr %0, align 4
  br label %25

25:                                               ; preds = %23, %24
  store i32 0, ptr %8, align 8
  br label %83

26:                                               ; preds = %21
  %27 = getelementptr inbounds nuw i8, ptr %1, i64 5016
  %28 = getelementptr inbounds nuw i8, ptr %1, i64 5048
  store i32 %3, ptr %28, align 8
  %29 = getelementptr inbounds nuw i8, ptr %1, i64 5040
  store ptr %2, ptr %29, align 8
  %30 = getelementptr inbounds nuw i8, ptr %1, i64 5024
  %31 = getelementptr inbounds nuw i8, ptr %1, i64 8
  %32 = getelementptr inbounds nuw i8, ptr %1, i64 5008
  br label %33

33:                                               ; preds = %79, %26
  %34 = load ptr, ptr %1, align 8
  %35 = tail call i32 @ferror(ptr noundef %34) #22
  %.not90 = icmp eq i32 %35, 0
  br i1 %.not90, label %39, label %36

36:                                               ; preds = %33
  br i1 %.not, label %38, label %37

37:                                               ; preds = %36
  store i32 -6, ptr %0, align 4
  br label %38

38:                                               ; preds = %36, %37
  store i32 -6, ptr %8, align 8
  br label %83

39:                                               ; preds = %33
  %40 = load i32, ptr %30, align 8
  %41 = icmp eq i32 %40, 0
  br i1 %41, label %42, label %myfeof.exit

42:                                               ; preds = %39
  %43 = tail call i32 @fgetc(ptr noundef %34)
  %44 = icmp eq i32 %43, -1
  br i1 %44, label %myfeof.exit, label %45

45:                                               ; preds = %42
  %46 = tail call i32 @ungetc(i32 noundef %43, ptr noundef %34)
  %47 = load ptr, ptr %1, align 8
  %48 = tail call i64 @fread(ptr noundef nonnull %31, i64 noundef 1, i64 noundef 5000, ptr noundef %47)
  %49 = load ptr, ptr %1, align 8
  %50 = tail call i32 @ferror(ptr noundef %49) #22
  %.not92 = icmp eq i32 %50, 0
  br i1 %.not92, label %54, label %51

51:                                               ; preds = %45
  br i1 %.not, label %53, label %52

52:                                               ; preds = %51
  store i32 -6, ptr %0, align 4
  br label %53

53:                                               ; preds = %51, %52
  store i32 -6, ptr %8, align 8
  br label %83

54:                                               ; preds = %45
  %55 = trunc i64 %48 to i32
  store i32 %55, ptr %32, align 8
  store i32 %55, ptr %30, align 8
  store ptr %31, ptr %27, align 8
  br label %myfeof.exit

myfeof.exit:                                      ; preds = %42, %54, %39
  %56 = tail call i32 @BZ2_bzDecompress(ptr noundef nonnull %27)
  %57 = and i32 %56, -5
  %or.cond5.not = icmp eq i32 %57, 0
  br i1 %or.cond5.not, label %61, label %58

58:                                               ; preds = %myfeof.exit
  br i1 %.not, label %60, label %59

59:                                               ; preds = %58
  store i32 %56, ptr %0, align 4
  br label %60

60:                                               ; preds = %58, %59
  store i32 %56, ptr %8, align 8
  br label %83

61:                                               ; preds = %myfeof.exit
  switch i32 %56, label %79 [
    i32 0, label %62
    i32 4, label %74
  ]

62:                                               ; preds = %61
  %63 = load ptr, ptr %1, align 8
  %64 = tail call i32 @fgetc(ptr noundef %63)
  %65 = icmp eq i32 %64, -1
  br i1 %65, label %myfeof.exit96, label %myfeof.exit96.thread

myfeof.exit96.thread:                             ; preds = %62
  %66 = tail call i32 @ungetc(i32 noundef %64, ptr noundef %63)
  br label %79

myfeof.exit96:                                    ; preds = %62
  %67 = load i32, ptr %30, align 8
  %68 = icmp eq i32 %67, 0
  br i1 %68, label %69, label %79

69:                                               ; preds = %myfeof.exit96
  %70 = load i32, ptr %28, align 8
  %.not94 = icmp eq i32 %70, 0
  br i1 %.not94, label %.thread103, label %71

71:                                               ; preds = %69
  br i1 %.not, label %73, label %72

72:                                               ; preds = %71
  store i32 -7, ptr %0, align 4
  br label %73

73:                                               ; preds = %71, %72
  store i32 -7, ptr %8, align 8
  br label %83

74:                                               ; preds = %61
  br i1 %.not, label %76, label %75

75:                                               ; preds = %74
  store i32 4, ptr %0, align 4
  br label %76

76:                                               ; preds = %74, %75
  store i32 4, ptr %8, align 8
  %77 = load i32, ptr %28, align 8
  %78 = sub i32 %3, %77
  br label %83

79:                                               ; preds = %myfeof.exit96, %myfeof.exit96.thread, %61
  %.pr = load i32, ptr %28, align 8
  %80 = icmp eq i32 %.pr, 0
  br i1 %80, label %.thread103, label %33

.thread103:                                       ; preds = %79, %69
  br i1 %.not, label %82, label %81

81:                                               ; preds = %.thread103
  store i32 0, ptr %0, align 4
  br label %82

82:                                               ; preds = %.thread103, %81
  store i32 0, ptr %8, align 8
  br label %83

83:                                               ; preds = %25, %20, %12, %13, %82, %76, %73, %60, %53, %38
  %.0 = phi i32 [ 0, %38 ], [ 0, %60 ], [ 0, %73 ], [ %78, %76 ], [ %3, %82 ], [ 0, %53 ], [ 0, %13 ], [ 0, %12 ], [ 0, %20 ], [ 0, %25 ]
  ret i32 %.0
}